target datalayout = "e-m:e-p270:32:32-p271:32:32-p272:64:64-i64:64-i128:128-f80:128-n8:16:32:64-S128"
target triple = "x86_64-pc-linux-gnu"

%struct.prolog_state = type { ptr, i32, i32 }
%struct.encoding = type { [3 x ptr], [2 x ptr], ptr, ptr, ptr, ptr, ptr, ptr, ptr, ptr, ptr, ptr, i32, i8, i8 }

@KW_SYSTEM = internal constant [7 x i8] c"SYSTEM\00", align 1
@KW_PUBLIC = internal constant [7 x i8] c"PUBLIC\00", align 1

; Function Attrs: nounwind uwtable
define internal i32 @common(ptr noundef %0, i32 noundef %1) #0 {
  %3 = alloca ptr, align 8
  %4 = alloca i32, align 4
  store ptr %0, ptr %3, align 8, !tbaa !4
  store i32 %1, ptr %4, align 4, !tbaa !12
  %5 = load ptr, ptr %3, align 8, !tbaa !4
  %6 = getelementptr inbounds nuw %struct.prolog_state, ptr %5, i32 0, i32 0
  store ptr @error, ptr %6, align 8, !tbaa !9
  ret i32 -1
}

; Function Attrs: nounwind uwtable
define internal i32 @entity2(ptr noundef %0, i32 noundef %1, ptr noundef %2, ptr noundef %3, ptr noundef %4) #0 {
  %6 = alloca i32, align 4
  %7 = alloca ptr, align 8
  %8 = alloca i32, align 4
  %9 = alloca ptr, align 8
  %10 = alloca ptr, align 8
  %11 = alloca ptr, align 8
  store ptr %0, ptr %7, align 8, !tbaa !4
  store i32 %1, ptr %8, align 4, !tbaa !12
  store ptr %2, ptr %9, align 8, !tbaa !13
  store ptr %3, ptr %10, align 8, !tbaa !13
  store ptr %4, ptr %11, align 8, !tbaa !15
  %12 = load i32, ptr %8, align 4, !tbaa !12
  switch i32 %12, label %44 [
    i32 15, label %13
    i32 18, label %14
    i32 27, label %39
  ]

13:                                               ; preds = %5
  store i32 11, ptr %6, align 4
  br label %48

14:                                               ; preds = %5
  %15 = load ptr, ptr %11, align 8, !tbaa !15
  %16 = getelementptr inbounds nuw %struct.encoding, ptr %15, i32 0, i32 2
  %17 = load ptr, ptr %16, align 8, !tbaa !17
  %18 = load ptr, ptr %11, align 8, !tbaa !15
  %19 = load ptr, ptr %9, align 8, !tbaa !13
  %20 = load ptr, ptr %10, align 8, !tbaa !13
  %21 = call i32 %17(ptr noundef %18, ptr noundef %19, ptr noundef %20, ptr noundef @KW_SYSTEM)
  %22 = icmp ne i32 %21, 0
  br i1 %22, label %23, label %26

23:                                               ; preds = %14
  %24 = load ptr, ptr %7, align 8, !tbaa !4
  %25 = getelementptr inbounds nuw %struct.prolog_state, ptr %24, i32 0, i32 0
  store ptr @entity4, ptr %25, align 8, !tbaa !9
  store i32 11, ptr %6, align 4
  br label %48

26:                                               ; preds = %14
  %27 = load ptr, ptr %11, align 8, !tbaa !15
  %28 = getelementptr inbounds nuw %struct.encoding, ptr %27, i32 0, i32 2
  %29 = load ptr, ptr %28, align 8, !tbaa !17
  %30 = load ptr, ptr %11, align 8, !tbaa !15
  %31 = load ptr, ptr %9, align 8, !tbaa !13
  %32 = load ptr, ptr %10, align 8, !tbaa !13
  %33 = call i32 %29(ptr noundef %30, ptr noundef %31, ptr noundef %32, ptr noundef @KW_PUBLIC)
  %34 = icmp ne i32 %33, 0
  br i1 %34, label %35, label %38

35:                                               ; preds = %26
  %36 = load ptr, ptr %7, align 8, !tbaa !4
  %37 = getelementptr inbounds nuw %struct.prolog_state, ptr %36, i32 0, i32 0
  store ptr @entity3, ptr %37, align 8, !tbaa !9
  store i32 11, ptr %6, align 4
  br label %48

38:                                               ; preds = %26
  br label %44

39:                                               ; preds = %5
  %40 = load ptr, ptr %7, align 8, !tbaa !4
  %41 = getelementptr inbounds nuw %struct.prolog_state, ptr %40, i32 0, i32 0
  store ptr @declClose, ptr %41, align 8, !tbaa !9
  %42 = load ptr, ptr %7, align 8, !tbaa !4
  %43 = getelementptr inbounds nuw %struct.prolog_state, ptr %42, i32 0, i32 2
  store i32 11, ptr %43, align 4, !tbaa !20
  store i32 12, ptr %6, align 4
  br label %48

44:                                               ; preds = %5, %38
  %45 = load ptr, ptr %7, align 8, !tbaa !4
  %46 = load i32, ptr %8, align 4, !tbaa !12
  %47 = call i32 @common(ptr noundef %45, i32 noundef %46)
  store i32 %47, ptr %6, align 4
  br label %48

48:                                               ; preds = %44, %39, %35, %23, %13
  %49 = load i32, ptr %6, align 4
  ret i32 %49
}