; Function Attrs: nounwind uwtable
define internal range(i32 -1, 13) i32 @entity2(ptr noundef writeonly captures(none) %0, i32 noundef %1, ptr noundef %2, ptr noundef %3, ptr noundef %4) #1 {
  switch i32 %1, label %17 [
    i32 15, label %18
    i32 18, label %6
    i32 27, label %15
  ]

6:                                                ; preds = %5
  %7 = getelementptr inbounds nuw i8, ptr %4, i64 40
  %8 = load ptr, ptr %7, align 8, !tbaa !10
  %9 = tail call i32 %8(ptr noundef %4, ptr noundef %2, ptr noundef %3, ptr noundef nonnull @KW_SYSTEM) #5
  %.not = icmp eq i32 %9, 0
  br i1 %.not, label %11, label %10

10:                                               ; preds = %6
  store ptr @entity4, ptr %0, align 8, !tbaa !4
  br label %18

11:                                               ; preds = %6
  %12 = load ptr, ptr %7, align 8, !tbaa !10
  %13 = tail call i32 %12(ptr noundef nonnull %4, ptr noundef %2, ptr noundef %3, ptr noundef nonnull @KW_PUBLIC) #5
  %.not15 = icmp eq i32 %13, 0
  br i1 %.not15, label %17, label %14

14:                                               ; preds = %11
  store ptr @entity3, ptr %0, align 8, !tbaa !4
  br label %18

15:                                               ; preds = %5
  store ptr @declClose, ptr %0, align 8, !tbaa !4
  %16 = getelementptr inbounds nuw i8, ptr %0, i64 12
  store i32 11, ptr %16, align 4, !tbaa !13
  br label %18

17:                                               ; preds = %11, %5
  store ptr @error, ptr %0, align 8, !tbaa !4
  br label %18

18:                                               ; preds = %5, %17, %15, %14, %10
  %.0 = phi i32 [ -1, %17 ], [ 12, %15 ], [ 11, %10 ], [ 11, %14 ], [ 11, %5 ]
  ret i32 %.0
}